; Function Attrs: mustprogress nounwind uwtable
define hidden void @_ZN14JfrTypeManager18write_static_typesER19JfrCheckpointWriter(ptr noundef nonnull align 8 dereferenceable(73) %0) local_unnamed_addr #0 align 2 {
  tail call void @_ZN14PosixSemaphore4waitEv(ptr noundef nonnull align 8 dereferenceable(32) @_ZN27SerializerRegistrationGuard16_mutex_semaphoreE) #8
  %2 = load volatile ptr, ptr @_ZL5types, align 8
  tail call void asm sideeffect "", "~{memory},~{dirflag},~{fpsr},~{flags}"() #8, !srcloc !6
  %.not6.i = icmp eq ptr %2, null
  br i1 %.not6.i, label %_ZN13JfrLinkedListI25JfrSerializerRegistration11JfrCHeapObjE7iterateI16InvokeSerializerEEvRT_.exit, label %.lr.ph.i

.lr.ph.i:                                         ; preds = %1, %.lr.ph.i
  %.07.i = phi ptr [ %3, %.lr.ph.i ], [ %2, %1 ]
  %3 = load ptr, ptr %.07.i, align 8
  tail call void @_ZNK25JfrSerializerRegistration6invokeER19JfrCheckpointWriter(ptr noundef nonnull align 8 dereferenceable(29) %.07.i, ptr noundef nonnull align 8 dereferenceable(73) %0)
  %.not.i = icmp eq ptr %3, null
  br i1 %.not.i, label %_ZN13JfrLinkedListI25JfrSerializerRegistration11JfrCHeapObjE7iterateI16InvokeSerializerEEvRT_.exit, label %.lr.ph.i, !llvm.loop !13

_ZN13JfrLinkedListI25JfrSerializerRegistration11JfrCHeapObjE7iterateI16InvokeSerializerEEvRT_.exit: ; preds = %.lr.ph.i, %1
  tail call void @_ZN14PosixSemaphore6signalEj(ptr noundef nonnull align 8 dereferenceable(32) @_ZN27SerializerRegistrationGuard16_mutex_semaphoreE, i32 noundef 1) #8
  ret void
}